target datalayout = "e-m:e-p270:32:32-p271:32:32-p272:64:64-i64:64-i128:128-f80:128-n8:16:32:64-S128"
target triple = "x86_64-pc-linux-gnu"

%class.Klass = type <{ %class.Metadata, i32, i32, i32, i32, ptr, ptr, ptr, [8 x ptr], %class.OopHandle, ptr, ptr, ptr, ptr, ptr, i32, %class.AccessFlags, i64, i64, i8, i8, i16, i16, [2 x i8], i32, [4 x i8] }>
%class.Metadata = type { ptr }
%class.OopHandle = type { ptr }
%class.AccessFlags = type { i32 }
%class.MutexLocker = type { %class.MutexLockerImpl }
%class.MutexLockerImpl = type { ptr }
%class.ModuleEntry = type { %class.OopHandle, %class.OopHandle, ptr, ptr, %union.anon.3, ptr, ptr, i32, i8, i8, i8, i8, i8, i32, i64 }
%union.anon.3 = type { ptr }
%class.PackageEntry = type <{ ptr, ptr, i32, i16, i8, i8, ptr, i64, i32, [4 x i8] }>

@Module_lock = external global ptr, align 8
@_ZN9vmClasses8_klassesE = external global [0 x ptr], align 8

; Function Attrs: mustprogress nounwind uwtable
define linkonce_odr hidden void @_ZN15MutexLockerImplD2Ev(ptr noundef nonnull align 8 dereferenceable(8) %0) unnamed_addr #1 comdat align 2 {
  %2 = alloca ptr, align 8
  store ptr %0, ptr %2, align 8
  %3 = load ptr, ptr %2, align 8
  %4 = getelementptr inbounds %class.MutexLockerImpl, ptr %3, i32 0, i32 0
  %5 = load ptr, ptr %4, align 8
  %6 = icmp ne ptr %5, null
  br i1 %6, label %7, label %10

7:                                                ; preds = %1
  %8 = getelementptr inbounds %class.MutexLockerImpl, ptr %3, i32 0, i32 0
  %9 = load ptr, ptr %8, align 8
  call void @_ZN5Mutex6unlockEv(ptr noundef nonnull align 8 dereferenceable(104) %9)
  br label %10

10:                                               ; preds = %7, %1
  ret void
}

; Function Attrs: mustprogress nounwind uwtable
define linkonce_odr hidden noundef ptr @_ZNK12PackageEntry6moduleEv(ptr noundef nonnull align 8 dereferenceable(44) %0) #1 comdat align 2 {
  %2 = alloca ptr, align 8
  store ptr %0, ptr %2, align 8
  %3 = load ptr, ptr %2, align 8
  %4 = getelementptr inbounds %class.PackageEntry, ptr %3, i32 0, i32 1
  %5 = load ptr, ptr %4, align 8
  ret ptr %5
}

; Function Attrs: mustprogress nounwind uwtable
define linkonce_odr hidden void @_ZN15MutexLockerImplC2EP5MutexNS0_18SafepointCheckFlagE(ptr noundef nonnull align 8 dereferenceable(8) %0, ptr noundef %1, i32 noundef %2) unnamed_addr #1 comdat align 2 {
  %4 = alloca ptr, align 8
  %5 = alloca ptr, align 8
  %6 = alloca i32, align 4
  %7 = alloca i8, align 1
  store ptr %0, ptr %4, align 8
  store ptr %1, ptr %5, align 8
  store i32 %2, ptr %6, align 4
  %8 = load ptr, ptr %4, align 8
  %9 = getelementptr inbounds %class.MutexLockerImpl, ptr %8, i32 0, i32 0
  %10 = load ptr, ptr %5, align 8
  store ptr %10, ptr %9, align 8
  %11 = load i32, ptr %6, align 4
  %12 = icmp eq i32 %11, 1
  %13 = zext i1 %12 to i8
  store i8 %13, ptr %7, align 1
  %14 = getelementptr inbounds %class.MutexLockerImpl, ptr %8, i32 0, i32 0
  %15 = load ptr, ptr %14, align 8
  %16 = icmp ne ptr %15, null
  br i1 %16, label %17, label %27

17:                                               ; preds = %3
  %18 = load i8, ptr %7, align 1
  %19 = trunc i8 %18 to i1
  br i1 %19, label %20, label %23

20:                                               ; preds = %17
  %21 = getelementptr inbounds %class.MutexLockerImpl, ptr %8, i32 0, i32 0
  %22 = load ptr, ptr %21, align 8
  call void @_ZN5Mutex28lock_without_safepoint_checkEv(ptr noundef nonnull align 8 dereferenceable(104) %22)
  br label %26

23:                                               ; preds = %17
  %24 = getelementptr inbounds %class.MutexLockerImpl, ptr %8, i32 0, i32 0
  %25 = load ptr, ptr %24, align 8
  call void @_ZN5Mutex4lockEv(ptr noundef nonnull align 8 dereferenceable(104) %25)
  br label %26

26:                                               ; preds = %23, %20
  br label %27

27:                                               ; preds = %26, %3
  ret void
}

; Function Attrs: mustprogress nounwind uwtable
define linkonce_odr hidden noundef zeroext i1 @_ZNK11AccessFlags9is_publicEv(ptr noundef nonnull align 4 dereferenceable(4) %0) #1 comdat align 2 {
  %2 = alloca ptr, align 8
  store ptr %0, ptr %2, align 8
  %3 = load ptr, ptr %2, align 8
  %4 = getelementptr inbounds %class.AccessFlags, ptr %3, i32 0, i32 0
  %5 = load i32, ptr %4, align 4
  %6 = and i32 %5, 1
  %7 = icmp ne i32 %6, 0
  ret i1 %7
}

; Function Attrs: mustprogress nounwind uwtable
define linkonce_odr hidden noundef ptr @_ZN9vmClasses11check_klassEP13InstanceKlass(ptr noundef %0) #1 comdat align 2 {
  %2 = alloca ptr, align 8
  store ptr %0, ptr %2, align 8
  %3 = load ptr, ptr %2, align 8
  ret ptr %3
}

; Function Attrs: mustprogress nounwind uwtable
define linkonce_odr hidden noundef ptr @_ZN13InstanceKlass4castEPK5Klass(ptr noundef %0) #1 comdat align 2 {
  %2 = alloca ptr, align 8
  store ptr %0, ptr %2, align 8
  %3 = load ptr, ptr %2, align 8
  ret ptr %3
}

; Function Attrs: mustprogress nounwind uwtable
define linkonce_odr hidden void @_ZN11MutexLockerD2Ev(ptr noundef nonnull align 8 dereferenceable(8) %0) unnamed_addr #1 comdat align 2 {
  %2 = alloca ptr, align 8
  store ptr %0, ptr %2, align 8
  %3 = load ptr, ptr %2, align 8
  call void @_ZN15MutexLockerImplD2Ev(ptr noundef nonnull align 8 dereferenceable(8) %3) #9
  ret void
}

; Function Attrs: mustprogress nounwind uwtable
define linkonce_odr hidden noundef zeroext i1 @_ZNK12PackageEntry18is_unqual_exportedEv(ptr noundef nonnull align 8 dereferenceable(44) %0) #1 comdat align 2 {
  %2 = alloca ptr, align 8
  store ptr %0, ptr %2, align 8
  %3 = load ptr, ptr %2, align 8
  %4 = call noundef ptr @_ZNK12PackageEntry6moduleEv(ptr noundef nonnull align 8 dereferenceable(44) %3)
  %5 = call noundef zeroext i1 @_ZNK11ModuleEntry7is_openEv(ptr noundef nonnull align 8 dereferenceable(80) %4)
  br i1 %5, label %10, label %6

6:                                                ; preds = %1
  %7 = getelementptr inbounds %class.PackageEntry, ptr %3, i32 0, i32 2
  %8 = load i32, ptr %7, align 8
  %9 = icmp eq i32 %8, 1
  br label %10

10:                                               ; preds = %6, %1
  %11 = phi i1 [ true, %1 ], [ %9, %6 ]
  ret i1 %11
}

; Function Attrs: mustprogress nounwind uwtable
define linkonce_odr hidden void @_ZN11MutexLockerC2EP5MutexNS0_18SafepointCheckFlagE(ptr noundef nonnull align 8 dereferenceable(8) %0, ptr noundef %1, i32 noundef %2) unnamed_addr #1 comdat align 2 {
  %4 = alloca ptr, align 8
  %5 = alloca ptr, align 8
  %6 = alloca i32, align 4
  store ptr %0, ptr %4, align 8
  store ptr %1, ptr %5, align 8
  store i32 %2, ptr %6, align 4
  %7 = load ptr, ptr %4, align 8
  %8 = load ptr, ptr %5, align 8
  %9 = load i32, ptr %6, align 4
  call void @_ZN15MutexLockerImplC2EP5MutexNS0_18SafepointCheckFlagE(ptr noundef nonnull align 8 dereferenceable(8) %7, ptr noundef %8, i32 noundef %9)
  ret void
}

; Function Attrs: mustprogress nounwind uwtable
define linkonce_odr hidden noundef zeroext i1 @_ZNK11ModuleEntry7is_openEv(ptr noundef nonnull align 8 dereferenceable(80) %0) #1 comdat align 2 {
  %2 = alloca ptr, align 8
  store ptr %0, ptr %2, align 8
  %3 = load ptr, ptr %2, align 8
  %4 = getelementptr inbounds %class.ModuleEntry, ptr %3, i32 0, i32 11
  %5 = load i8, ptr %4, align 1
  %6 = trunc i8 %5 to i1
  ret i1 %6
}

; Function Attrs: mustprogress nounwind uwtable
define linkonce_odr hidden noundef zeroext i1 @_ZNK11ModuleEntry20can_read_all_unnamedEv(ptr noundef nonnull align 8 dereferenceable(80) %0) #1 comdat align 2 {
  %2 = alloca ptr, align 8
  store ptr %0, ptr %2, align 8
  %3 = load ptr, ptr %2, align 8
  %4 = getelementptr inbounds %class.ModuleEntry, ptr %3, i32 0, i32 8
  %5 = load i8, ptr %4, align 4
  %6 = trunc i8 %5 to i1
  ret i1 %6
}

; Function Attrs: mustprogress nounwind uwtable
define linkonce_odr hidden noundef zeroext i1 @_ZNK11ModuleEntry8is_namedEv(ptr noundef nonnull align 8 dereferenceable(80) %0) #1 comdat align 2 {
  %2 = alloca ptr, align 8
  store ptr %0, ptr %2, align 8
  %3 = load ptr, ptr %2, align 8
  %4 = getelementptr inbounds %class.ModuleEntry, ptr %3, i32 0, i32 2
  %5 = load ptr, ptr %4, align 8
  %6 = icmp ne ptr %5, null
  ret i1 %6
}

; Function Attrs: mustprogress nounwind uwtable
define linkonce_odr hidden noundef zeroext i1 @_ZNK5Klass9is_publicEv(ptr noundef nonnull align 8 dereferenceable(196) %0) #1 comdat align 2 {
  %2 = alloca ptr, align 8
  store ptr %0, ptr %2, align 8
  %3 = load ptr, ptr %2, align 8
  %4 = getelementptr inbounds %class.Klass, ptr %3, i32 0, i32 16
  %5 = call noundef zeroext i1 @_ZNK11AccessFlags9is_publicEv(ptr noundef nonnull align 4 dereferenceable(4) %4)
  ret i1 %5
}

; Function Attrs: mustprogress nounwind uwtable
define linkonce_odr hidden noundef ptr @_ZN9vmClasses50reflect_SerializationConstructorAccessorImpl_klassEv() #1 comdat align 2 {
  %1 = load ptr, ptr getelementptr inbounds ([0 x ptr], ptr @_ZN9vmClasses8_klassesE, i64 0, i64 56), align 8
  %2 = call noundef ptr @_ZN9vmClasses11check_klassEP13InstanceKlass(ptr noundef %1)
  ret ptr %2
}

; Function Attrs: mustprogress nounwind uwtable
define linkonce_odr hidden noundef zeroext i1 @_ZN9vmClasses60reflect_SerializationConstructorAccessorImpl_klass_is_loadedEv() #1 comdat align 2 {
  %1 = load ptr, ptr getelementptr inbounds ([0 x ptr], ptr @_ZN9vmClasses8_klassesE, i64 0, i64 56), align 8
  %2 = call noundef zeroext i1 @_ZN9vmClasses9is_loadedEP13InstanceKlass(ptr noundef %1)
  ret i1 %2
}

; Function Attrs: mustprogress nounwind uwtable
define hidden noundef zeroext i1 @_ZN10Reflection21is_same_class_packageEPK5KlassS2_(ptr noundef %0, ptr noundef %1) #1 align 2 {
  %3 = alloca ptr, align 8
  %4 = alloca ptr, align 8
  store ptr %0, ptr %3, align 8
  store ptr %1, ptr %4, align 8
  %5 = load ptr, ptr %3, align 8
  %6 = call noundef ptr @_ZN13InstanceKlass4castEPK5Klass(ptr noundef %5)
  %7 = load ptr, ptr %4, align 8
  %8 = call noundef zeroext i1 @_ZNK13InstanceKlass21is_same_class_packageEPK5Klass(ptr noundef nonnull align 8 dereferenceable(464) %6, ptr noundef %7)
  ret i1 %8
}

; Function Attrs: mustprogress nounwind uwtable
define hidden noundef i32 @_ZN10Reflection19verify_class_accessEPK5KlassPK13InstanceKlassb(ptr noundef %0, ptr noundef %1, i1 noundef zeroext %2) #1 align 2 {
  %4 = alloca i32, align 4
  %5 = alloca ptr, align 8
  %6 = alloca ptr, align 8
  %7 = alloca i8, align 1
  %8 = alloca ptr, align 8
  %9 = alloca ptr, align 8
  %10 = alloca ptr, align 8
  %11 = alloca %class.MutexLocker, align 8
  %12 = alloca i32, align 4
  store ptr %0, ptr %5, align 8
  store ptr %1, ptr %6, align 8
  %13 = zext i1 %2 to i8
  store i8 %13, ptr %7, align 1
  %14 = load ptr, ptr %5, align 8
  %15 = icmp eq ptr %14, null
  br i1 %15, label %24, label %16

16:                                               ; preds = %3
  %17 = load ptr, ptr %5, align 8
  %18 = load ptr, ptr %6, align 8
  %19 = icmp eq ptr %17, %18
  br i1 %19, label %24, label %20

20:                                               ; preds = %16
  %21 = load ptr, ptr %5, align 8
  %22 = load ptr, ptr %6, align 8
  %23 = call noundef zeroext i1 @_ZN10Reflection21is_same_class_packageEPK5KlassS2_(ptr noundef %21, ptr noundef %22)
  br i1 %23, label %24, label %25

24:                                               ; preds = %20, %16, %3
  store i32 0, ptr %4, align 4
  br label %97

25:                                               ; preds = %20
  %26 = call noundef zeroext i1 @_ZN9vmClasses60reflect_SerializationConstructorAccessorImpl_klass_is_loadedEv()
  br i1 %26, label %27, label %32

27:                                               ; preds = %25
  %28 = load ptr, ptr %5, align 8
  %29 = call noundef ptr @_ZN9vmClasses50reflect_SerializationConstructorAccessorImpl_klassEv()
  %30 = call noundef zeroext i1 @_ZNK5Klass14is_subclass_ofEPKS_(ptr noundef nonnull align 8 dereferenceable(196) %28, ptr noundef %29)
  br i1 %30, label %31, label %32

31:                                               ; preds = %27
  store i32 0, ptr %4, align 4
  br label %97

32:                                               ; preds = %27, %25
  %33 = load ptr, ptr %6, align 8
  %34 = call noundef zeroext i1 @_ZNK5Klass9is_publicEv(ptr noundef nonnull align 8 dereferenceable(196) %33)
  br i1 %34, label %35, label %89

35:                                               ; preds = %32
  %36 = load ptr, ptr %5, align 8
  %37 = load ptr, ptr %36, align 8
  %38 = getelementptr inbounds ptr, ptr %37, i64 17
  %39 = load ptr, ptr %38, align 8
  %40 = call noundef ptr %39(ptr noundef nonnull align 8 dereferenceable(196) %36)
  store ptr %40, ptr %8, align 8
  %41 = load ptr, ptr %6, align 8
  %42 = load ptr, ptr %41, align 8
  %43 = getelementptr inbounds ptr, ptr %42, i64 17
  %44 = load ptr, ptr %43, align 8
  %45 = call noundef ptr %44(ptr noundef nonnull align 8 dereferenceable(464) %41)
  store ptr %45, ptr %9, align 8
  %46 = load ptr, ptr %8, align 8
  %47 = load ptr, ptr %9, align 8
  %48 = icmp eq ptr %46, %47
  br i1 %48, label %49, label %50

49:                                               ; preds = %35
  store i32 0, ptr %4, align 4
  br label %97

50:                                               ; preds = %35
  %51 = load ptr, ptr %9, align 8
  %52 = call noundef zeroext i1 @_ZNK11ModuleEntry8is_namedEv(ptr noundef nonnull align 8 dereferenceable(80) %51)
  br i1 %52, label %61, label %53

53:                                               ; preds = %50
  %54 = load ptr, ptr %8, align 8
  %55 = call noundef zeroext i1 @_ZNK11ModuleEntry20can_read_all_unnamedEv(ptr noundef nonnull align 8 dereferenceable(80) %54)
  br i1 %55, label %60, label %56

56:                                               ; preds = %53
  %57 = load ptr, ptr %8, align 8
  %58 = load ptr, ptr %9, align 8
  %59 = call noundef zeroext i1 @_ZNK11ModuleEntry8can_readEPS_(ptr noundef nonnull align 8 dereferenceable(80) %57, ptr noundef %58)
  br i1 %59, label %60, label %61

60:                                               ; preds = %56, %53
  store i32 0, ptr %4, align 4
  br label %97

61:                                               ; preds = %56, %50
  %62 = load ptr, ptr %8, align 8
  %63 = load ptr, ptr %9, align 8
  %64 = call noundef zeroext i1 @_ZNK11ModuleEntry8can_readEPS_(ptr noundef nonnull align 8 dereferenceable(80) %62, ptr noundef %63)
  br i1 %64, label %66, label %65

65:                                               ; preds = %61
  store i32 1, ptr %4, align 4
  br label %97

66:                                               ; preds = %61
  %67 = load ptr, ptr %9, align 8
  %68 = call noundef zeroext i1 @_ZNK11ModuleEntry7is_openEv(ptr noundef nonnull align 8 dereferenceable(80) %67)
  br i1 %68, label %69, label %70

69:                                               ; preds = %66
  store i32 0, ptr %4, align 4
  br label %97

70:                                               ; preds = %66
  %71 = load ptr, ptr %6, align 8
  %72 = load ptr, ptr %71, align 8
  %73 = getelementptr inbounds ptr, ptr %72, i64 18
  %74 = load ptr, ptr %73, align 8
  %75 = call noundef ptr %74(ptr noundef nonnull align 8 dereferenceable(464) %71)
  store ptr %75, ptr %10, align 8
  %76 = load ptr, ptr @Module_lock, align 8
  call void @_ZN11MutexLockerC2EP5MutexNS0_18SafepointCheckFlagE(ptr noundef nonnull align 8 dereferenceable(8) %11, ptr noundef %76, i32 noundef 0)
  %77 = load ptr, ptr %10, align 8
  %78 = call noundef zeroext i1 @_ZNK12PackageEntry18is_unqual_exportedEv(ptr noundef nonnull align 8 dereferenceable(44) %77)
  br i1 %78, label %79, label %80

79:                                               ; preds = %70
  store i32 0, ptr %4, align 4
  store i32 1, ptr %12, align 4
  br label %86

80:                                               ; preds = %70
  %81 = load ptr, ptr %10, align 8
  %82 = load ptr, ptr %8, align 8
  %83 = call noundef zeroext i1 @_ZNK12PackageEntry15is_qexported_toEP11ModuleEntry(ptr noundef nonnull align 8 dereferenceable(44) %81, ptr noundef %82)
  br i1 %83, label %85, label %84

84:                                               ; preds = %80
  store i32 2, ptr %4, align 4
  store i32 1, ptr %12, align 4
  br label %86

85:                                               ; preds = %80
  store i32 0, ptr %12, align 4
  br label %86

86:                                               ; preds = %85, %84, %79
  call void @_ZN11MutexLockerD2Ev(ptr noundef nonnull align 8 dereferenceable(8) %11) #9
  %87 = load i32, ptr %12, align 4
  switch i32 %87, label %99 [
    i32 0, label %88
    i32 1, label %97
  ]

88:                                               ; preds = %86
  store i32 0, ptr %4, align 4
  br label %97

89:                                               ; preds = %32
  %90 = load ptr, ptr %5, align 8
  %91 = load ptr, ptr %6, align 8
  %92 = load i8, ptr %7, align 1
  %93 = trunc i8 %92 to i1
  %94 = call noundef zeroext i1 @_ZL26can_relax_access_check_forPK5KlassS1_b(ptr noundef %90, ptr noundef %91, i1 noundef zeroext %93)
  br i1 %94, label %95, label %96

95:                                               ; preds = %89
  store i32 0, ptr %4, align 4
  br label %97

96:                                               ; preds = %89
  store i32 3, ptr %4, align 4
  br label %97

97:                                               ; preds = %96, %95, %88, %86, %69, %65, %60, %49, %31, %24
  %98 = load i32, ptr %4, align 4
  ret i32 %98

99:                                               ; preds = %86
  unreachable
}