; Function Attrs: mustprogress nounwind uwtable
define hidden noundef i32 @_ZN10Reflection19verify_class_accessEPK5KlassPK13InstanceKlassb(ptr noundef %0, ptr noundef %1, i1 noundef zeroext %2) local_unnamed_addr #0 align 2 {
  %4 = icmp eq ptr %0, null
  %5 = icmp eq ptr %0, %1
  %or.cond = or i1 %4, %5
  br i1 %or.cond, label %_ZN11MutexLockerD2Ev.exit, label %6

6:                                                ; preds = %3
  %7 = tail call noundef zeroext i1 @_ZNK13InstanceKlass21is_same_class_packageEPK5Klass(ptr noundef nonnull align 8 dereferenceable(464) %0, ptr noundef %1) #13
  br i1 %7, label %_ZN11MutexLockerD2Ev.exit, label %8

8:                                                ; preds = %6
  %9 = load ptr, ptr getelementptr inbounds (i8, ptr @_ZN9vmClasses8_klassesE, i64 448), align 8
  %10 = tail call noundef zeroext i1 @_ZN9vmClasses9is_loadedEP13InstanceKlass(ptr noundef %9) #13
  br i1 %10, label %11, label %14

11:                                               ; preds = %8
  %12 = load ptr, ptr getelementptr inbounds (i8, ptr @_ZN9vmClasses8_klassesE, i64 448), align 8
  %13 = tail call noundef zeroext i1 @_ZNK5Klass14is_subclass_ofEPKS_(ptr noundef nonnull align 8 dereferenceable(196) %0, ptr noundef %12) #13
  br i1 %13, label %_ZN11MutexLockerD2Ev.exit, label %14

14:                                               ; preds = %11, %8
  %15 = getelementptr inbounds i8, ptr %1, i64 164
  %16 = load i32, ptr %15, align 4
  %17 = and i32 %16, 1
  %.not = icmp eq i32 %17, 0
  br i1 %.not, label %64, label %18

18:                                               ; preds = %14
  %19 = load ptr, ptr %0, align 8
  %20 = getelementptr inbounds i8, ptr %19, i64 136
  %21 = load ptr, ptr %20, align 8
  %22 = tail call noundef ptr %21(ptr noundef nonnull align 8 dereferenceable(196) %0) #13
  %23 = load ptr, ptr %1, align 8
  %24 = getelementptr inbounds i8, ptr %23, i64 136
  %25 = load ptr, ptr %24, align 8
  %26 = tail call noundef ptr %25(ptr noundef nonnull align 8 dereferenceable(464) %1) #13
  %27 = icmp eq ptr %22, %26
  br i1 %27, label %_ZN11MutexLockerD2Ev.exit, label %28

28:                                               ; preds = %18
  %29 = getelementptr inbounds i8, ptr %26, i64 16
  %30 = load ptr, ptr %29, align 8
  %.not34 = icmp eq ptr %30, null
  br i1 %.not34, label %31, label %37

31:                                               ; preds = %28
  %32 = getelementptr inbounds i8, ptr %22, i64 60
  %33 = load i8, ptr %32, align 4
  %34 = trunc i8 %33 to i1
  br i1 %34, label %_ZN11MutexLockerD2Ev.exit, label %35

35:                                               ; preds = %31
  %36 = tail call noundef zeroext i1 @_ZNK11ModuleEntry8can_readEPS_(ptr noundef nonnull align 8 dereferenceable(80) %22, ptr noundef nonnull %26) #13
  br i1 %36, label %_ZN11MutexLockerD2Ev.exit, label %37

37:                                               ; preds = %35, %28
  %38 = tail call noundef zeroext i1 @_ZNK11ModuleEntry8can_readEPS_(ptr noundef nonnull align 8 dereferenceable(80) %22, ptr noundef nonnull %26) #13
  br i1 %38, label %39, label %_ZN11MutexLockerD2Ev.exit

39:                                               ; preds = %37
  %40 = getelementptr inbounds i8, ptr %26, i64 63
  %41 = load i8, ptr %40, align 1
  %42 = trunc i8 %41 to i1
  br i1 %42, label %_ZN11MutexLockerD2Ev.exit, label %43

43:                                               ; preds = %39
  %44 = load ptr, ptr %1, align 8
  %45 = getelementptr inbounds i8, ptr %44, i64 144
  %46 = load ptr, ptr %45, align 8
  %47 = tail call noundef ptr %46(ptr noundef nonnull align 8 dereferenceable(464) %1) #13
  %48 = load ptr, ptr @Module_lock, align 8
  %.not.i.i = icmp eq ptr %48, null
  br i1 %.not.i.i, label %_ZN11MutexLockerC2EP5MutexNS0_18SafepointCheckFlagE.exit, label %49

49:                                               ; preds = %43
  tail call void @_ZN5Mutex4lockEv(ptr noundef nonnull align 8 dereferenceable(104) %48) #13
  br label %_ZN11MutexLockerC2EP5MutexNS0_18SafepointCheckFlagE.exit

_ZN11MutexLockerC2EP5MutexNS0_18SafepointCheckFlagE.exit: ; preds = %43, %49
  %50 = getelementptr inbounds i8, ptr %47, i64 8
  %51 = load ptr, ptr %50, align 8
  %52 = getelementptr inbounds i8, ptr %51, i64 63
  %53 = load i8, ptr %52, align 1
  %54 = trunc i8 %53 to i1
  %55 = getelementptr inbounds i8, ptr %47, i64 16
  %56 = load i32, ptr %55, align 8
  %57 = icmp eq i32 %56, 1
  %58 = select i1 %54, i1 true, i1 %57
  br i1 %58, label %62, label %59

59:                                               ; preds = %_ZN11MutexLockerC2EP5MutexNS0_18SafepointCheckFlagE.exit
  %60 = tail call noundef zeroext i1 @_ZNK12PackageEntry15is_qexported_toEP11ModuleEntry(ptr noundef nonnull align 8 dereferenceable(44) %47, ptr noundef nonnull %22) #13
  %61 = select i1 %60, i32 0, i32 2
  br label %62

62:                                               ; preds = %59, %_ZN11MutexLockerC2EP5MutexNS0_18SafepointCheckFlagE.exit
  %switch = phi i32 [ 0, %_ZN11MutexLockerC2EP5MutexNS0_18SafepointCheckFlagE.exit ], [ %61, %59 ]
  br i1 %.not.i.i, label %_ZN11MutexLockerD2Ev.exit, label %63

63:                                               ; preds = %62
  tail call void @_ZN5Mutex6unlockEv(ptr noundef nonnull align 8 dereferenceable(104) %48) #13
  br label %_ZN11MutexLockerD2Ev.exit

64:                                               ; preds = %14
  %65 = tail call fastcc noundef zeroext i1 @_ZL26can_relax_access_check_forPK5KlassS1_b(ptr noundef nonnull %0, ptr noundef nonnull %1, i1 noundef zeroext %2)
  %.32 = select i1 %65, i32 0, i32 3
  br label %_ZN11MutexLockerD2Ev.exit

_ZN11MutexLockerD2Ev.exit:                        ; preds = %63, %62, %64, %39, %37, %31, %35, %18, %11, %3, %6
  %.1 = phi i32 [ 0, %6 ], [ 0, %3 ], [ 0, %11 ], [ 0, %18 ], [ 0, %35 ], [ 0, %31 ], [ 1, %37 ], [ 0, %39 ], [ %.32, %64 ], [ %switch, %62 ], [ %switch, %63 ]
  ret i32 %.1
}